; Function Attrs: nounwind uwtable
define internal range(i32 -1, 1) i32 @H5P__ocrt_pipeline_get(i64 %0, ptr readnone captures(none) %1, i64 %2, ptr noundef %3) #0 {
  %5 = alloca %struct.H5O_pline_t, align 8
  call void @llvm.lifetime.start.p0(i64 72, ptr nonnull %5) #10
  %6 = load i8, ptr @H5P_init_g, align 1, !tbaa !3, !range !7, !noundef !8
  %7 = trunc nuw i8 %6 to i1
  %8 = load i8, ptr @H5_libterm_g, align 1, !range !7
  %9 = trunc nuw i8 %8 to i1
  %10 = xor i1 %9, true
  %11 = select i1 %7, i1 true, i1 %10
  br i1 %11, label %12, label %20, !prof !9

12:                                               ; preds = %4
  %13 = call ptr @H5O_msg_copy(i32 noundef 11, ptr noundef %3, ptr noundef nonnull %5) #10
  %14 = icmp eq ptr %13, null
  br i1 %14, label %15, label %19

15:                                               ; preds = %12
  %16 = load i64, ptr @H5E_PLIST_g, align 8, !tbaa !10
  %17 = load i64, ptr @H5E_CANTCOPY_g, align 8, !tbaa !10
  %18 = call i32 (ptr, ptr, i32, i64, i64, ptr, ...) @H5E_printf_stack(ptr noundef nonnull @.str.1, ptr noundef nonnull @__func__.H5P__ocrt_pipeline_get, i32 noundef 1246, i64 noundef %16, i64 noundef %17, ptr noundef nonnull @.str.43) #10
  br label %20

19:                                               ; preds = %12
  call void @llvm.memcpy.p0.p0.i64(ptr noundef nonnull align 8 dereferenceable(72) %3, ptr noundef nonnull align 8 dereferenceable(72) %5, i64 72, i1 false), !tbaa.struct !40
  br label %20

20:                                               ; preds = %15, %19, %4
  %.0 = phi i32 [ -1, %15 ], [ 0, %19 ], [ 0, %4 ]
  call void @llvm.lifetime.end.p0(i64 72, ptr nonnull %5) #10
  ret i32 %.0
}